; Function Attrs: mustprogress nofree norecurse nosync nounwind willreturn memory(argmem: write) uwtable
define noundef ptr @uprv_decNumberZero_77(ptr noundef returned writeonly initializes((0, 10)) %0) local_unnamed_addr #2 {
  %2 = getelementptr inbounds nuw i8, ptr %0, i64 8
  store i8 0, ptr %2, align 4, !tbaa !3
  %3 = getelementptr inbounds nuw i8, ptr %0, i64 4
  store i32 0, ptr %3, align 4, !tbaa !8
  store i32 1, ptr %0, align 4, !tbaa !9
  %4 = getelementptr inbounds nuw i8, ptr %0, i64 9
  store i8 0, ptr %4, align 1, !tbaa !10
  ret ptr %0
}